; Function Attrs: mustprogress nounwind uwtable
define dso_local noundef ptr @_ZN4llvm10emitStrCpyEPNS_5ValueES1_RNS_13IRBuilderBaseEPKNS_17TargetLibraryInfoE(ptr noundef %0, ptr noundef %1, ptr noundef nonnull align 8 dereferenceable(128) %2, ptr noundef %3) local_unnamed_addr #0 {
  %5 = alloca [2 x ptr], align 8
  %6 = alloca [2 x ptr], align 8
  %7 = getelementptr inbounds nuw i8, ptr %0, i64 8
  %8 = load ptr, ptr %7, align 8
  store ptr %8, ptr %5, align 8
  %9 = getelementptr inbounds i8, ptr %5, i64 8
  store ptr %8, ptr %9, align 8
  store ptr %0, ptr %6, align 8
  %10 = getelementptr inbounds i8, ptr %6, i64 8
  store ptr %1, ptr %10, align 8
  %11 = call fastcc noundef ptr @_ZL11emitLibCallN4llvm7LibFuncEPNS_4TypeENS_8ArrayRefIS2_EENS3_IPNS_5ValueEEERNS_13IRBuilderBaseEPKNS_17TargetLibraryInfoEb(i32 noundef 441, ptr noundef %8, ptr nonnull %5, i64 2, ptr nonnull %6, i64 2, ptr noundef nonnull align 8 dereferenceable(128) %2, ptr noundef %3, i1 noundef zeroext false)
  ret ptr %11
}